; Function Attrs: mustprogress nofree nounwind uwtable
define hidden noundef zeroext i1 @_ZN15ClassListParser14try_parse_uintEPi(ptr nocapture noundef nonnull align 8 dereferenceable(520) %0, ptr noundef %1) local_unnamed_addr #8 align 2 {
  %3 = getelementptr inbounds i8, ptr %0, i64 512
  %.promoted.i = load ptr, ptr %3, align 8
  br label %4

4:                                                ; preds = %.critedge.i, %2
  %5 = phi ptr [ %7, %.critedge.i ], [ %.promoted.i, %2 ]
  %6 = load i8, ptr %5, align 1
  switch i8 %6, label %_ZN15ClassListParser16skip_whitespacesEv.exit [
    i8 32, label %.critedge.i
    i8 9, label %.critedge.i
  ]

.critedge.i:                                      ; preds = %4, %4
  %7 = getelementptr inbounds i8, ptr %5, i64 1
  store ptr %7, ptr %3, align 8
  br label %4, !llvm.loop !20

_ZN15ClassListParser16skip_whitespacesEv.exit:    ; preds = %4
  %8 = tail call i32 (ptr, ptr, ...) @__isoc99_sscanf(ptr noundef nonnull %5, ptr noundef nonnull @.str.24, ptr noundef %1) #19
  %9 = icmp eq i32 %8, 1
  br i1 %9, label %10, label %_ZN15ClassListParser20skip_non_whitespacesEv.exit

10:                                               ; preds = %_ZN15ClassListParser16skip_whitespacesEv.exit
  %.promoted.i3 = load ptr, ptr %3, align 8
  br label %11

11:                                               ; preds = %14, %10
  %12 = phi ptr [ %15, %14 ], [ %.promoted.i3, %10 ]
  %13 = load i8, ptr %12, align 1
  switch i8 %13, label %14 [
    i8 0, label %_ZN15ClassListParser20skip_non_whitespacesEv.exit
    i8 32, label %_ZN15ClassListParser20skip_non_whitespacesEv.exit
    i8 9, label %_ZN15ClassListParser20skip_non_whitespacesEv.exit
  ]

14:                                               ; preds = %11
  %15 = getelementptr inbounds i8, ptr %12, i64 1
  store ptr %15, ptr %3, align 8
  br label %11, !llvm.loop !19

_ZN15ClassListParser20skip_non_whitespacesEv.exit: ; preds = %11, %11, %11, %_ZN15ClassListParser16skip_whitespacesEv.exit
  ret i1 %9
}